; Function Attrs: mustprogress nofree norecurse nosync nounwind willreturn memory(argmem: write) uwtable
define void @_ZN5faiss9NNDescentC2Eii(ptr noundef nonnull writeonly align 8 captures(none) dereferenceable(88) initializes((0, 1), (4, 88)) %0, i32 noundef %1, i32 noundef %2) unnamed_addr #12 align 2 {
  store i8 0, ptr %0, align 8, !tbaa !67
  %4 = getelementptr inbounds nuw i8, ptr %0, i64 4
  store i32 10, ptr %4, align 4, !tbaa !74
  %5 = getelementptr inbounds nuw i8, ptr %0, i64 8
  store i32 100, ptr %5, align 8, !tbaa !75
  %6 = getelementptr inbounds nuw i8, ptr %0, i64 12
  store i32 10, ptr %6, align 4, !tbaa !76
  %7 = getelementptr inbounds nuw i8, ptr %0, i64 16
  store i32 0, ptr %7, align 8, !tbaa !77
  %8 = getelementptr inbounds nuw i8, ptr %0, i64 20
  store i32 2021, ptr %8, align 4, !tbaa !78
  %9 = getelementptr inbounds nuw i8, ptr %0, i64 24
  store i32 %2, ptr %9, align 8, !tbaa !79
  %10 = getelementptr inbounds nuw i8, ptr %0, i64 28
  store i32 %1, ptr %10, align 4, !tbaa !80
  %11 = getelementptr inbounds nuw i8, ptr %0, i64 36
  %12 = add nsw i32 %2, 50
  %13 = getelementptr inbounds nuw i8, ptr %0, i64 32
  tail call void @llvm.memset.p0.i64(ptr noundef nonnull align 4 dereferenceable(52) %11, i8 0, i64 52, i1 false)
  store i32 %12, ptr %13, align 8, !tbaa !81
  ret void
}